target datalayout = "e-m:e-p270:32:32-p271:32:32-p272:64:64-i64:64-i128:128-f80:128-n8:16:32:64-S128"
target triple = "x86_64-pc-linux-gnu"

; Function Attrs: mustprogress nounwind uwtable
define noundef i32 @_ZNK11TransTableL5hash8EPKi(ptr noundef nonnull align 8 dereferenceable(664216) %0, ptr noundef %1) #5 align 2 {
  %3 = alloca ptr, align 8
  %4 = alloca ptr, align 8
  %5 = alloca i32, align 4
  store ptr %0, ptr %3, align 8
  store ptr %1, ptr %4, align 8
  %6 = load ptr, ptr %4, align 8
  %7 = getelementptr inbounds i32, ptr %6, i64 0
  %8 = load i32, ptr %7, align 4
  %9 = load ptr, ptr %4, align 8
  %10 = getelementptr inbounds i32, ptr %9, i64 1
  %11 = load i32, ptr %10, align 4
  %12 = mul nsw i32 %11, 5
  %13 = xor i32 %8, %12
  %14 = load ptr, ptr %4, align 8
  %15 = getelementptr inbounds i32, ptr %14, i64 2
  %16 = load i32, ptr %15, align 4
  %17 = mul nsw i32 %16, 25
  %18 = xor i32 %13, %17
  %19 = load ptr, ptr %4, align 8
  %20 = getelementptr inbounds i32, ptr %19, i64 3
  %21 = load i32, ptr %20, align 4
  %22 = mul nsw i32 %21, 125
  %23 = xor i32 %18, %22
  store i32 %23, ptr %5, align 4
  %24 = load i32, ptr %5, align 4
  %25 = load i32, ptr %5, align 4
  %26 = ashr i32 %25, 5
  %27 = xor i32 %24, %26
  %28 = and i32 %27, 255
  ret i32 %28
}