; Function Attrs: mustprogress nofree norecurse nosync nounwind willreturn memory(argmem: read) uwtable
define noundef range(i32 0, 256) i32 @_ZNK11TransTableL5hash8EPKi(ptr nocapture noundef nonnull readnone align 8 dereferenceable(664216) %0, ptr nocapture noundef readonly %1) local_unnamed_addr #18 align 2 {
  %3 = load i32, ptr %1, align 4
  %4 = getelementptr inbounds i8, ptr %1, i64 4
  %5 = load i32, ptr %4, align 4
  %6 = mul nsw i32 %5, 5
  %7 = xor i32 %6, %3
  %8 = getelementptr inbounds i8, ptr %1, i64 8
  %9 = load i32, ptr %8, align 4
  %10 = mul nsw i32 %9, 25
  %11 = xor i32 %7, %10
  %12 = getelementptr inbounds i8, ptr %1, i64 12
  %13 = load i32, ptr %12, align 4
  %14 = mul nsw i32 %13, 125
  %15 = xor i32 %11, %14
  %16 = lshr i32 %15, 5
  %17 = xor i32 %16, %15
  %18 = and i32 %17, 255
  ret i32 %18
}